target datalayout = "e-m:e-p270:32:32-p271:32:32-p272:64:64-i64:64-i128:128-f80:128-n8:16:32:64-S128"
target triple = "x86_64-unknown-linux-gnu"

%struct.malloc_mutex_s = type { %union.anon }
%union.anon = type { %struct.anon.1 }
%struct.anon.1 = type { %struct.mutex_prof_data_t, %union.pthread_mutex_t, %struct.atomic_b_t }
%struct.mutex_prof_data_t = type { %struct.nstime_t, %struct.nstime_t, i64, i64, i32, %struct.atomic_u32_t, i64, ptr, i64 }
%struct.nstime_t = type { i64 }
%struct.atomic_u32_t = type { i32 }
%union.pthread_mutex_t = type { %struct.__pthread_mutex_s }
%struct.__pthread_mutex_s = type { i32, i32, i32, i32, i32, i16, i16, %struct.__pthread_internal_list }
%struct.__pthread_internal_list = type { ptr, ptr }
%struct.atomic_b_t = type { i8 }
%struct.atomic_p_t = type { ptr }
%struct.tsd_s = type { i8, i8, i64, i64, i64, i64, i64, i64, i64, i64, i64, i64, i64, i64, ptr, i64, i64, i64, ptr, ptr, %struct.ticker_geom_s, i8, %struct.tsd_binshards_s, %struct.tsd_link_t, i8, %struct.peak_s, %struct.activity_callback_thunk_s, %struct.tcache_slow_s, %struct.rtree_ctx_s, %struct.atomic_u8_t, i64, i64, i64, i64, %struct.tcache_s, %struct.witness_tsd_s }
%struct.ticker_geom_s = type { i32, i32 }
%struct.tsd_binshards_s = type { [39 x i8] }
%struct.tsd_link_t = type { ptr, ptr }
%struct.peak_s = type { i64, i64 }
%struct.activity_callback_thunk_s = type { ptr, ptr }
%struct.tcache_slow_s = type { %struct.anon.8, %struct.cache_bin_array_descriptor_s, ptr, i32, [39 x i8], [39 x i8], [39 x i8], ptr, ptr }
%struct.anon.8 = type { ptr, ptr }
%struct.cache_bin_array_descriptor_s = type { %struct.anon.9, ptr }
%struct.anon.9 = type { ptr, ptr }
%struct.rtree_ctx_s = type { [16 x %struct.rtree_ctx_cache_elm_s], [8 x %struct.rtree_ctx_cache_elm_s] }
%struct.rtree_ctx_cache_elm_s = type { i64, ptr }
%struct.atomic_u8_t = type { i8 }
%struct.tcache_s = type { ptr, [76 x %struct.cache_bin_s] }
%struct.cache_bin_s = type { ptr, %struct.cache_bin_stats_s, i16, i16, i16 }
%struct.cache_bin_stats_s = type { i64 }
%struct.witness_tsd_s = type { %struct.witness_list_t, i8 }
%struct.witness_list_t = type { ptr }
%struct.arena_s = type { [2 x %struct.atomic_u_t], %struct.atomic_u_t, ptr, %struct.arena_stats_s, %struct.anon, %struct.anon.0, %struct.malloc_mutex_s, %struct.atomic_u_t, %struct.edata_list_active_t, %struct.malloc_mutex_s, %struct.pa_shard_s, i32, ptr, %struct.nstime_t, [0 x %struct.bin_s] }
%struct.arena_stats_s = type { i64, i64, i64, i64, %struct.atomic_zu_t, i64, i64, i64, i64, i64, i64, %struct.pa_shard_stats_s, i64, i64, [12 x %struct.mutex_prof_data_t], [196 x %struct.arena_stats_large_s], %struct.nstime_t }
%struct.atomic_zu_t = type { i64 }
%struct.pa_shard_stats_s = type { i64, %struct.pac_stats_s }
%struct.pac_stats_s = type { %struct.pac_decay_stats_s, %struct.pac_decay_stats_s, i64, %struct.atomic_zu_t, %struct.atomic_zu_t }
%struct.pac_decay_stats_s = type { %struct.locked_u64_s, %struct.locked_u64_s, %struct.locked_u64_s }
%struct.locked_u64_s = type { %struct.atomic_u64_t }
%struct.atomic_u64_t = type { i64 }
%struct.arena_stats_large_s = type { %struct.locked_u64_s, %struct.locked_u64_s, %struct.locked_u64_s, %struct.locked_u64_s, %struct.locked_u64_s, i64 }
%struct.anon = type { ptr }
%struct.anon.0 = type { ptr }
%struct.atomic_u_t = type { i32 }
%struct.edata_list_active_t = type { %struct.anon.3 }
%struct.anon.3 = type { ptr }
%struct.pa_shard_s = type { ptr, %struct.atomic_zu_t, %struct.atomic_b_t, i8, %struct.pac_s, %struct.sec_s, %struct.hpa_shard_s, %struct.edata_cache_s, i32, ptr, ptr, ptr, ptr }
%struct.pac_s = type { %struct.pai_s, %struct.ecache_s, %struct.ecache_s, %struct.ecache_s, ptr, ptr, ptr, %struct.exp_grow_s, %struct.malloc_mutex_s, %struct.san_bump_alloc_s, %struct.atomic_zu_t, %struct.decay_s, %struct.decay_s, ptr, ptr, %struct.atomic_zu_t }
%struct.pai_s = type { ptr, ptr, ptr, ptr, ptr, ptr, ptr }
%struct.ecache_s = type { %struct.malloc_mutex_s, %struct.eset_s, %struct.eset_s, i32, i32, i8 }
%struct.eset_s = type { [4 x i64], [200 x %struct.eset_bin_s], [200 x %struct.eset_bin_stats_s], %struct.edata_list_inactive_t, %struct.atomic_zu_t, i32 }
%struct.eset_bin_s = type { %struct.edata_heap_t, %struct.edata_cmp_summary_s }
%struct.edata_heap_t = type { %struct.ph_s }
%struct.ph_s = type { ptr, i64 }
%struct.edata_cmp_summary_s = type { i64, i64 }
%struct.eset_bin_stats_s = type { %struct.atomic_zu_t, %struct.atomic_zu_t }
%struct.edata_list_inactive_t = type { %struct.anon.4 }
%struct.anon.4 = type { ptr }
%struct.exp_grow_s = type { i32, i32 }
%struct.san_bump_alloc_s = type { %struct.malloc_mutex_s, ptr }
%struct.decay_s = type { %struct.malloc_mutex_s, i8, %struct.atomic_zd_t, %struct.nstime_t, %struct.nstime_t, i64, %struct.nstime_t, i64, i64, [200 x i64], i64 }
%struct.atomic_zd_t = type { i64 }
%struct.sec_s = type { %struct.pai_s, ptr, %struct.sec_opts_s, ptr, i32 }
%struct.sec_opts_s = type { i64, i64, i64, i64, i64 }
%struct.hpa_shard_s = type { %struct.pai_s, ptr, %struct.malloc_mutex_s, %struct.malloc_mutex_s, ptr, %struct.edata_cache_fast_s, %struct.psset_s, i64, i32, ptr, %struct.hpa_shard_opts_s, i64, %struct.hpa_shard_nonderived_stats_s, %struct.nstime_t }
%struct.edata_cache_fast_s = type { %struct.edata_list_inactive_t, ptr, i8 }
%struct.psset_s = type { [64 x %struct.hpdata_age_heap_t], [1 x i64], %struct.psset_bin_stats_s, %struct.psset_stats_s, %struct.hpdata_empty_list_t, [128 x %struct.hpdata_purge_list_t], [2 x i64], %struct.hpdata_hugify_list_t }
%struct.hpdata_age_heap_t = type { %struct.ph_s }
%struct.psset_bin_stats_s = type { i64, i64, i64 }
%struct.psset_stats_s = type { [64 x [2 x %struct.psset_bin_stats_s]], [2 x %struct.psset_bin_stats_s], [2 x %struct.psset_bin_stats_s] }
%struct.hpdata_empty_list_t = type { %struct.anon.5 }
%struct.anon.5 = type { ptr }
%struct.hpdata_purge_list_t = type { %struct.anon.6 }
%struct.anon.6 = type { ptr }
%struct.hpdata_hugify_list_t = type { %struct.anon.7 }
%struct.anon.7 = type { ptr }
%struct.hpa_shard_opts_s = type { i64, i64, i32, i8, i64, i64 }
%struct.hpa_shard_nonderived_stats_s = type { i64, i64, i64, i64 }
%struct.edata_cache_s = type { %struct.edata_avail_t, %struct.atomic_zu_t, %struct.malloc_mutex_s, ptr }
%struct.edata_avail_t = type { %struct.ph_s }
%struct.bin_s = type { %struct.malloc_mutex_s, %struct.bin_stats_s, ptr, %struct.edata_heap_t, %struct.edata_list_active_t }
%struct.bin_stats_s = type { i64, i64, i64, i64, i64, i64, i64, i64, i64, i64 }
%struct.edata_s = type { i64, ptr, %union.anon.10, ptr, i64, %union.anon.11, %union.anon.14 }
%union.anon.10 = type { i64 }
%union.anon.11 = type { %union.anon.13 }
%union.anon.13 = type { %struct.edata_heap_link_t }
%struct.edata_heap_link_t = type { %struct.phn_link_s }
%struct.phn_link_s = type { ptr, ptr, ptr }
%union.anon.14 = type { %struct.slab_data_s }
%struct.slab_data_s = type { [8 x i64] }

@arenas = external global [0 x %struct.atomic_p_t], align 8
@ticker_geom_table = external constant [64 x i8], align 16

; Function Attrs: nounwind uwtable
define internal zeroext i1 @ticker_geom_fixup(ptr noundef %ticker, ptr noundef %prng_state) #0 {
entry:
  %state.addr.i3 = alloca i64, align 8
  %state.addr.i = alloca ptr, align 8
  %lg_range.addr.i = alloca i32, align 4
  %ret.i = alloca i64, align 8
  %ticker.addr = alloca ptr, align 8
  %prng_state.addr = alloca ptr, align 8
  %idx = alloca i64, align 8
  store ptr %ticker, ptr %ticker.addr, align 8
  store ptr %prng_state, ptr %prng_state.addr, align 8
  %0 = load ptr, ptr %prng_state.addr, align 8
  store ptr %0, ptr %state.addr.i, align 8
  store i32 6, ptr %lg_range.addr.i, align 4
  %1 = load ptr, ptr %state.addr.i, align 8
  %2 = load i64, ptr %1, align 8
  store i64 %2, ptr %state.addr.i3, align 8
  %3 = load i64, ptr %state.addr.i3, align 8
  %mul.i = mul i64 %3, 6364136223846793005
  %add.i = add i64 %mul.i, 1442695040888963407
  %4 = load ptr, ptr %state.addr.i, align 8
  store i64 %add.i, ptr %4, align 8
  %5 = load ptr, ptr %state.addr.i, align 8
  %6 = load i64, ptr %5, align 8
  %7 = load i32, ptr %lg_range.addr.i, align 4
  %sub.i = sub i32 64, %7
  %sh_prom.i = zext i32 %sub.i to i64
  %shr.i = lshr i64 %6, %sh_prom.i
  store i64 %shr.i, ptr %ret.i, align 8
  %8 = load i64, ptr %ret.i, align 8
  store i64 %8, ptr %idx, align 8
  %9 = load ptr, ptr %ticker.addr, align 8
  %nticks = getelementptr inbounds %struct.ticker_geom_s, ptr %9, i32 0, i32 1
  %10 = load i32, ptr %nticks, align 4
  %conv = sext i32 %10 to i64
  %11 = load i64, ptr %idx, align 8
  %arrayidx = getelementptr inbounds [64 x i8], ptr @ticker_geom_table, i64 0, i64 %11
  %12 = load i8, ptr %arrayidx, align 1
  %conv1 = zext i8 %12 to i64
  %mul = mul i64 %conv, %conv1
  %div = udiv i64 %mul, 61
  %conv2 = trunc i64 %div to i32
  %13 = load ptr, ptr %ticker.addr, align 8
  %tick = getelementptr inbounds %struct.ticker_geom_s, ptr %13, i32 0, i32 0
  store i32 %conv2, ptr %tick, align 4
  ret i1 true
}

; Function Attrs: nounwind uwtable
define internal i32 @edata_arena_ind_get(ptr noundef %edata) #0 {
entry:
  %edata.addr = alloca ptr, align 8
  %arena_ind = alloca i32, align 4
  store ptr %edata, ptr %edata.addr, align 8
  %0 = load ptr, ptr %edata.addr, align 8
  %e_bits = getelementptr inbounds %struct.edata_s, ptr %0, i32 0, i32 0
  %1 = load i64, ptr %e_bits, align 8
  %and = and i64 %1, 4095
  %shr = lshr i64 %and, 0
  %conv = trunc i64 %shr to i32
  store i32 %conv, ptr %arena_ind, align 4
  br label %do.body

do.body:                                          ; preds = %entry
  br label %do.end

do.end:                                           ; preds = %do.body
  %2 = load i32, ptr %arena_ind, align 4
  ret i32 %2
}

; Function Attrs: nounwind uwtable
define internal zeroext i1 @ticker_geom_ticks(ptr noundef %ticker, ptr noundef %prng_state, i32 noundef %nticks) #0 {
entry:
  %retval = alloca i1, align 1
  %ticker.addr = alloca ptr, align 8
  %prng_state.addr = alloca ptr, align 8
  %nticks.addr = alloca i32, align 4
  store ptr %ticker, ptr %ticker.addr, align 8
  store ptr %prng_state, ptr %prng_state.addr, align 8
  store i32 %nticks, ptr %nticks.addr, align 4
  %0 = load i32, ptr %nticks.addr, align 4
  %1 = load ptr, ptr %ticker.addr, align 8
  %tick = getelementptr inbounds %struct.ticker_geom_s, ptr %1, i32 0, i32 0
  %2 = load i32, ptr %tick, align 4
  %sub = sub nsw i32 %2, %0
  store i32 %sub, ptr %tick, align 4
  %3 = load ptr, ptr %ticker.addr, align 8
  %tick1 = getelementptr inbounds %struct.ticker_geom_s, ptr %3, i32 0, i32 0
  %4 = load i32, ptr %tick1, align 4
  %cmp = icmp slt i32 %4, 0
  %lnot = xor i1 %cmp, true
  %lnot2 = xor i1 %lnot, true
  %lnot.ext = zext i1 %lnot2 to i32
  %conv = sext i32 %lnot.ext to i64
  %tobool = icmp ne i64 %conv, 0
  br i1 %tobool, label %if.then, label %if.end

if.then:                                          ; preds = %entry
  %5 = load ptr, ptr %ticker.addr, align 8
  %6 = load ptr, ptr %prng_state.addr, align 8
  %call = call zeroext i1 @ticker_geom_fixup(ptr noundef %5, ptr noundef %6)
  store i1 %call, ptr %retval, align 1
  br label %return

if.end:                                           ; preds = %entry
  store i1 false, ptr %retval, align 1
  br label %return

return:                                           ; preds = %if.end, %if.then
  %7 = load i1, ptr %retval, align 1
  ret i1 %7
}

; Function Attrs: nounwind uwtable
define internal void @large_dalloc_finish_impl(ptr noundef %tsdn, ptr noundef %arena, ptr noundef %edata) #0 {
entry:
  %tsdn.addr = alloca ptr, align 8
  %arena.addr = alloca ptr, align 8
  %edata.addr = alloca ptr, align 8
  %deferred_work_generated = alloca i8, align 1
  store ptr %tsdn, ptr %tsdn.addr, align 8
  store ptr %arena, ptr %arena.addr, align 8
  store ptr %edata, ptr %edata.addr, align 8
  store i8 0, ptr %deferred_work_generated, align 1
  %0 = load ptr, ptr %tsdn.addr, align 8
  %1 = load ptr, ptr %arena.addr, align 8
  %pa_shard = getelementptr inbounds %struct.arena_s, ptr %1, i32 0, i32 10
  %2 = load ptr, ptr %edata.addr, align 8
  call void @pa_dalloc(ptr noundef %0, ptr noundef %pa_shard, ptr noundef %2, ptr noundef %deferred_work_generated)
  %3 = load i8, ptr %deferred_work_generated, align 1
  %tobool = trunc i8 %3 to i1
  br i1 %tobool, label %if.then, label %if.end

if.then:                                          ; preds = %entry
  %4 = load ptr, ptr %tsdn.addr, align 8
  %5 = load ptr, ptr %arena.addr, align 8
  call void @arena_handle_deferred_work(ptr noundef %4, ptr noundef %5)
  br label %if.end

if.end:                                           ; preds = %if.then, %entry
  ret void
}

; Function Attrs: nounwind uwtable
define internal ptr @arena_get_from_edata(ptr noundef %edata) #0 {
entry:
  %retval.i = alloca i32, align 4
  %mo.addr.i2 = alloca i32, align 4
  %a.addr.i = alloca ptr, align 8
  %mo.addr.i = alloca i32, align 4
  %result.i = alloca ptr, align 8
  %edata.addr = alloca ptr, align 8
  store ptr %edata, ptr %edata.addr, align 8
  %0 = load ptr, ptr %edata.addr, align 8
  %call = call i32 @edata_arena_ind_get(ptr noundef %0)
  %idxprom = zext i32 %call to i64
  %arrayidx = getelementptr inbounds [0 x %struct.atomic_p_t], ptr @arenas, i64 0, i64 %idxprom
  store ptr %arrayidx, ptr %a.addr.i, align 8
  store i32 0, ptr %mo.addr.i, align 4
  %1 = load ptr, ptr %a.addr.i, align 8
  %2 = load i32, ptr %mo.addr.i, align 4
  store i32 %2, ptr %mo.addr.i2, align 4
  %3 = load i32, ptr %mo.addr.i2, align 4
  switch i32 %3, label %sw.epilog.i [
    i32 0, label %sw.bb.i
    i32 1, label %sw.bb1.i
    i32 2, label %sw.bb2.i
    i32 3, label %sw.bb3.i
    i32 4, label %sw.bb4.i
  ]

sw.bb.i:                                          ; preds = %entry
  store i32 0, ptr %retval.i, align 4
  br label %atomic_enum_to_builtin.exit

sw.bb1.i:                                         ; preds = %entry
  store i32 2, ptr %retval.i, align 4
  br label %atomic_enum_to_builtin.exit

sw.bb2.i:                                         ; preds = %entry
  store i32 3, ptr %retval.i, align 4
  br label %atomic_enum_to_builtin.exit

sw.bb3.i:                                         ; preds = %entry
  store i32 4, ptr %retval.i, align 4
  br label %atomic_enum_to_builtin.exit

sw.bb4.i:                                         ; preds = %entry
  store i32 5, ptr %retval.i, align 4
  br label %atomic_enum_to_builtin.exit

sw.epilog.i:                                      ; preds = %entry
  unreachable

atomic_enum_to_builtin.exit:                      ; preds = %sw.bb4.i, %sw.bb3.i, %sw.bb2.i, %sw.bb1.i, %sw.bb.i
  %4 = load i32, ptr %retval.i, align 4
  switch i32 %4, label %monotonic.i [
    i32 1, label %acquire.i
    i32 2, label %acquire.i
    i32 5, label %seqcst.i
  ]

monotonic.i:                                      ; preds = %atomic_enum_to_builtin.exit
  %5 = load atomic i64, ptr %1 monotonic, align 8
  store i64 %5, ptr %result.i, align 8
  br label %atomic_load_p.exit

acquire.i:                                        ; preds = %atomic_enum_to_builtin.exit, %atomic_enum_to_builtin.exit
  %6 = load atomic i64, ptr %1 acquire, align 8
  store i64 %6, ptr %result.i, align 8
  br label %atomic_load_p.exit

seqcst.i:                                         ; preds = %atomic_enum_to_builtin.exit
  %7 = load atomic i64, ptr %1 seq_cst, align 8
  store i64 %7, ptr %result.i, align 8
  br label %atomic_load_p.exit

atomic_load_p.exit:                               ; preds = %seqcst.i, %acquire.i, %monotonic.i
  %8 = load ptr, ptr %result.i, align 8
  ret ptr %8
}

; Function Attrs: nounwind uwtable
define hidden void @large_dalloc(ptr noundef %tsdn, ptr noundef %edata) #0 {
entry:
  %tsd.addr.i9 = alloca ptr, align 8
  %tsd.addr.i8 = alloca ptr, align 8
  %tsd.addr.i.i3 = alloca ptr, align 8
  %tsd.addr.i4 = alloca ptr, align 8
  %state.i5 = alloca i8, align 1
  %tsd.addr.i.i = alloca ptr, align 8
  %tsd.addr.i = alloca ptr, align 8
  %state.i = alloca i8, align 1
  %tsdn.addr.i14.i = alloca ptr, align 8
  %tsdn.addr.i.i = alloca ptr, align 8
  %tsdn.addr.i1 = alloca ptr, align 8
  %arena.addr.i2 = alloca ptr, align 8
  %nticks.addr.i = alloca i32, align 4
  %tsd.i = alloca ptr, align 8
  %decay_ticker.i = alloca ptr, align 8
  %prng_state.i = alloca ptr, align 8
  %tsdn.addr.i = alloca ptr, align 8
  %arena.addr.i = alloca ptr, align 8
  %tsdn.addr = alloca ptr, align 8
  %edata.addr = alloca ptr, align 8
  %arena = alloca ptr, align 8
  store ptr %tsdn, ptr %tsdn.addr, align 8
  store ptr %edata, ptr %edata.addr, align 8
  %0 = load ptr, ptr %edata.addr, align 8
  %call = call ptr @arena_get_from_edata(ptr noundef %0)
  store ptr %call, ptr %arena, align 8
  %1 = load ptr, ptr %tsdn.addr, align 8
  %2 = load ptr, ptr %arena, align 8
  %3 = load ptr, ptr %edata.addr, align 8
  call void @large_dalloc_prep_impl(ptr noundef %1, ptr noundef %2, ptr noundef %3, i1 noundef zeroext false)
  %4 = load ptr, ptr %tsdn.addr, align 8
  %5 = load ptr, ptr %arena, align 8
  %6 = load ptr, ptr %edata.addr, align 8
  call void @large_dalloc_finish_impl(ptr noundef %4, ptr noundef %5, ptr noundef %6)
  %7 = load ptr, ptr %tsdn.addr, align 8
  %8 = load ptr, ptr %arena, align 8
  store ptr %7, ptr %tsdn.addr.i, align 8
  store ptr %8, ptr %arena.addr.i, align 8
  %9 = load ptr, ptr %tsdn.addr.i, align 8
  %10 = load ptr, ptr %arena.addr.i, align 8
  store ptr %9, ptr %tsdn.addr.i1, align 8
  store ptr %10, ptr %arena.addr.i2, align 8
  store i32 1, ptr %nticks.addr.i, align 4
  %11 = load ptr, ptr %tsdn.addr.i1, align 8
  store ptr %11, ptr %tsdn.addr.i.i, align 8
  %12 = load ptr, ptr %tsdn.addr.i.i, align 8
  %cmp.i.i = icmp eq ptr %12, null
  br i1 %cmp.i.i, label %if.then.i, label %if.end.i

if.then.i:                                        ; preds = %entry
  br label %arena_decay_ticks.exit

if.end.i:                                         ; preds = %entry
  %13 = load ptr, ptr %tsdn.addr.i1, align 8
  store ptr %13, ptr %tsdn.addr.i14.i, align 8
  %14 = load ptr, ptr %tsdn.addr.i14.i, align 8
  store ptr %14, ptr %tsd.i, align 8
  %15 = load ptr, ptr %tsd.i, align 8
  store ptr %15, ptr %tsd.addr.i, align 8
  %16 = load ptr, ptr %tsd.addr.i, align 8
  store ptr %16, ptr %tsd.addr.i.i, align 8
  %17 = load ptr, ptr %tsd.addr.i.i, align 8
  %state.i.i = getelementptr inbounds %struct.tsd_s, ptr %17, i32 0, i32 29
  %18 = load i8, ptr %state.i.i, align 8
  store i8 %18, ptr %state.i, align 1
  %19 = load ptr, ptr %tsd.addr.i, align 8
  store ptr %19, ptr %tsd.addr.i8, align 8
  %20 = load ptr, ptr %tsd.addr.i8, align 8
  %cant_access_tsd_items_directly_use_a_getter_or_setter_arena_decay_ticker.i = getelementptr inbounds %struct.tsd_s, ptr %20, i32 0, i32 20
  store ptr %cant_access_tsd_items_directly_use_a_getter_or_setter_arena_decay_ticker.i, ptr %decay_ticker.i, align 8
  %21 = load ptr, ptr %tsd.i, align 8
  store ptr %21, ptr %tsd.addr.i4, align 8
  %22 = load ptr, ptr %tsd.addr.i4, align 8
  store ptr %22, ptr %tsd.addr.i.i3, align 8
  %23 = load ptr, ptr %tsd.addr.i.i3, align 8
  %state.i.i6 = getelementptr inbounds %struct.tsd_s, ptr %23, i32 0, i32 29
  %24 = load i8, ptr %state.i.i6, align 8
  store i8 %24, ptr %state.i5, align 1
  %25 = load ptr, ptr %tsd.addr.i4, align 8
  store ptr %25, ptr %tsd.addr.i9, align 8
  %26 = load ptr, ptr %tsd.addr.i9, align 8
  %cant_access_tsd_items_directly_use_a_getter_or_setter_prng_state.i = getelementptr inbounds %struct.tsd_s, ptr %26, i32 0, i32 15
  store ptr %cant_access_tsd_items_directly_use_a_getter_or_setter_prng_state.i, ptr %prng_state.i, align 8
  %27 = load ptr, ptr %decay_ticker.i, align 8
  %28 = load ptr, ptr %prng_state.i, align 8
  %29 = load i32, ptr %nticks.addr.i, align 4
  %call5.i = call zeroext i1 @ticker_geom_ticks(ptr noundef %27, ptr noundef %28, i32 noundef %29)
  br i1 %call5.i, label %if.then12.i, label %arena_decay_ticks.exit

if.then12.i:                                      ; preds = %if.end.i
  %30 = load ptr, ptr %tsdn.addr.i1, align 8
  %31 = load ptr, ptr %arena.addr.i2, align 8
  call void @arena_decay(ptr noundef %30, ptr noundef %31, i1 noundef zeroext false, i1 noundef zeroext false) #7
  br label %arena_decay_ticks.exit

arena_decay_ticks.exit:                           ; preds = %if.then12.i, %if.end.i, %if.then.i
  ret void
}