; Function Attrs: nounwind uwtable
define hidden void @large_dalloc(ptr noundef %tsdn, ptr noundef %edata) local_unnamed_addr #0 {
entry:
  %deferred_work_generated.i = alloca i8, align 1
  %edata.val.i = load i64, ptr %edata, align 8
  %conv.i.i = and i64 %edata.val.i, 4095
  %arrayidx.i = getelementptr inbounds [0 x %struct.atomic_p_t], ptr @arenas, i64 0, i64 %conv.i.i
  %0 = load atomic i64, ptr %arrayidx.i monotonic, align 8
  %1 = inttoptr i64 %0 to ptr
  tail call fastcc void @large_dalloc_prep_impl(ptr noundef %tsdn, ptr noundef %1, ptr noundef nonnull %edata, i1 noundef zeroext false)
  call void @llvm.lifetime.start.p0(i64 1, ptr nonnull %deferred_work_generated.i)
  store i8 0, ptr %deferred_work_generated.i, align 1
  %pa_shard.i = getelementptr inbounds i8, ptr %1, i64 10648
  call void @pa_dalloc(ptr noundef %tsdn, ptr noundef nonnull %pa_shard.i, ptr noundef nonnull %edata, ptr noundef nonnull %deferred_work_generated.i) #10
  %2 = load i8, ptr %deferred_work_generated.i, align 1
  %3 = and i8 %2, 1
  %tobool.not.i = icmp eq i8 %3, 0
  br i1 %tobool.not.i, label %large_dalloc_finish_impl.exit, label %if.then.i

if.then.i:                                        ; preds = %entry
  call void @arena_handle_deferred_work(ptr noundef %tsdn, ptr noundef %1) #10
  br label %large_dalloc_finish_impl.exit

large_dalloc_finish_impl.exit:                    ; preds = %entry, %if.then.i
  call void @llvm.lifetime.end.p0(i64 1, ptr nonnull %deferred_work_generated.i)
  %cmp.i.i = icmp eq ptr %tsdn, null
  br i1 %cmp.i.i, label %arena_decay_ticks.exit, label %if.end.i

if.end.i:                                         ; preds = %large_dalloc_finish_impl.exit
  %cant_access_tsd_items_directly_use_a_getter_or_setter_arena_decay_ticker.i = getelementptr inbounds i8, ptr %tsdn, i64 152
  %4 = load i32, ptr %cant_access_tsd_items_directly_use_a_getter_or_setter_arena_decay_ticker.i, align 4
  %sub.i = add nsw i32 %4, -1
  store i32 %sub.i, ptr %cant_access_tsd_items_directly_use_a_getter_or_setter_arena_decay_ticker.i, align 4
  %cmp.i = icmp slt i32 %4, 1
  br i1 %cmp.i, label %if.then12.i, label %arena_decay_ticks.exit

if.then12.i:                                      ; preds = %if.end.i
  %cant_access_tsd_items_directly_use_a_getter_or_setter_prng_state.i = getelementptr inbounds i8, ptr %tsdn, i64 112
  %5 = load i64, ptr %cant_access_tsd_items_directly_use_a_getter_or_setter_prng_state.i, align 8
  %mul.i.i.i = mul i64 %5, 6364136223846793005
  %add.i.i.i = add i64 %mul.i.i.i, 1442695040888963407
  store i64 %add.i.i.i, ptr %cant_access_tsd_items_directly_use_a_getter_or_setter_prng_state.i, align 8
  %shr.i.i.i = lshr i64 %add.i.i.i, 58
  %nticks.i.i = getelementptr inbounds i8, ptr %tsdn, i64 156
  %6 = load i32, ptr %nticks.i.i, align 4
  %conv.i.i14 = sext i32 %6 to i64
  %arrayidx.i.i = getelementptr inbounds [64 x i8], ptr @ticker_geom_table, i64 0, i64 %shr.i.i.i
  %7 = load i8, ptr %arrayidx.i.i, align 1
  %conv1.i.i = zext i8 %7 to i64
  %mul.i.i = mul nsw i64 %conv1.i.i, %conv.i.i14
  %div.i.i = udiv i64 %mul.i.i, 61
  %conv2.i.i = trunc i64 %div.i.i to i32
  store i32 %conv2.i.i, ptr %cant_access_tsd_items_directly_use_a_getter_or_setter_arena_decay_ticker.i, align 4
  call void @arena_decay(ptr noundef nonnull %tsdn, ptr noundef %1, i1 noundef zeroext false, i1 noundef zeroext false) #10
  br label %arena_decay_ticks.exit

arena_decay_ticks.exit:                           ; preds = %if.end.i, %large_dalloc_finish_impl.exit, %if.then12.i
  ret void
}